	.file	"prog.c"
	.text
	.globl	foo
	.type	foo, @function
foo:
.LFB0:
	.cfi_startproc
	pushl	%ebp        # I am not sure what this does.
	.cfi_def_cfa_offset 8
	.cfi_offset 5, -8
	movl	%esp, %ebp  # this is where stack pointer is moved to the ebp
                        # register - Function prologue...
	.cfi_def_cfa_register 5
	subl	$16, %esp
	movl	8(%ebp), %eax
	movl	%eax, -4(%ebp)
	nop
	leave               # leave is to commands: movl %ebp, %esp and
                        # popl %ebp - This pops %ebp from the top of the
                        # and sets %ebp to that value
	.cfi_restore 5
	.cfi_def_cfa 4, 4
	ret
	.cfi_endproc
.LFE0:
	.size	foo, .-foo
	.globl	bar
	.type	bar, @function
bar:
.LFB1:
	.cfi_startproc
	pushl	%ebp
	.cfi_def_cfa_offset 8
	.cfi_offset 5, -8
	movl	%esp, %ebp
	.cfi_def_cfa_register 5
	subl	$16, %esp
	movl	$5, -4(%ebp)
	pushl	-4(%ebp)
	call	foo
	addl	$4, %esp
	nop
	leave
	.cfi_restore 5
	.cfi_def_cfa 4, 4
	ret
	.cfi_endproc
.LFE1:
	.size	bar, .-bar
	.ident	"GCC: (Ubuntu 5.4.0-6ubuntu1~16.04.4) 5.4.0 20160609"
	.section	.note.GNU-stack,"",@progbits
